; Function Attrs: nounwind uwtable
define i32 @exr_set_pixel_aspect_ratio(ptr noundef %0, i32 noundef %1, float noundef %2) local_unnamed_addr #0 {
  %.not = icmp eq ptr %0, null
  br i1 %.not, label %55, label %4

4:                                                ; preds = %3
  %5 = getelementptr inbounds nuw i8, ptr %0, i64 504
  %6 = tail call i32 @pthread_mutex_lock(ptr noundef nonnull %5) #6
  %7 = icmp slt i32 %1, 0
  br i1 %7, label %11, label %8

8:                                                ; preds = %4
  %9 = getelementptr inbounds nuw i8, ptr %0, i64 196
  %10 = load i32, ptr %9, align 4, !tbaa !22
  %.not39 = icmp slt i32 %1, %10
  br i1 %.not39, label %16, label %11

11:                                               ; preds = %8, %4
  %12 = tail call i32 @pthread_mutex_unlock(ptr noundef nonnull %5) #6
  %13 = getelementptr inbounds nuw i8, ptr %0, i64 72
  %14 = load ptr, ptr %13, align 8, !tbaa !23
  %15 = tail call i32 (ptr, i32, ptr, ...) %14(ptr noundef nonnull %0, i32 noundef 4, ptr noundef nonnull @.str, i32 noundef %1) #6
  br label %55

16:                                               ; preds = %8
  %17 = getelementptr inbounds nuw i8, ptr %0, i64 472
  %18 = load ptr, ptr %17, align 8, !tbaa !24
  %19 = zext nneg i32 %1 to i64
  %20 = getelementptr inbounds nuw ptr, ptr %18, i64 %19
  %21 = load ptr, ptr %20, align 8, !tbaa !25
  %22 = load i8, ptr %0, align 8, !tbaa !3
  switch i8 %22, label %33 [
    i8 0, label %23
    i8 3, label %28
  ]

23:                                               ; preds = %16
  %24 = tail call i32 @pthread_mutex_unlock(ptr noundef nonnull %5) #6
  %25 = getelementptr inbounds nuw i8, ptr %0, i64 56
  %26 = load ptr, ptr %25, align 8, !tbaa !27
  %27 = tail call i32 %26(ptr noundef nonnull %0, i32 noundef 8) #6
  br label %55

28:                                               ; preds = %16
  %29 = tail call i32 @pthread_mutex_unlock(ptr noundef nonnull %5) #6
  %30 = getelementptr inbounds nuw i8, ptr %0, i64 56
  %31 = load ptr, ptr %30, align 8, !tbaa !27
  %32 = tail call i32 %31(ptr noundef nonnull %0, i32 noundef 21) #6
  br label %55

33:                                               ; preds = %16
  %34 = getelementptr inbounds nuw i8, ptr %21, i64 72
  %35 = load ptr, ptr %34, align 8, !tbaa !44
  %.not40 = icmp eq ptr %35, null
  br i1 %.not40, label %47, label %36

36:                                               ; preds = %33
  %37 = getelementptr inbounds nuw i8, ptr %35, i64 20
  %38 = load i32, ptr %37, align 4, !tbaa !32
  %.not41 = icmp eq i32 %38, 8
  br i1 %.not41, label %.thread, label %39

39:                                               ; preds = %36
  %40 = tail call i32 @pthread_mutex_unlock(ptr noundef nonnull %5) #6
  %41 = getelementptr inbounds nuw i8, ptr %0, i64 72
  %42 = load ptr, ptr %41, align 8, !tbaa !23
  %43 = load ptr, ptr %34, align 8, !tbaa !44
  %44 = getelementptr inbounds nuw i8, ptr %43, i64 8
  %45 = load ptr, ptr %44, align 8, !tbaa !34
  %46 = tail call i32 (ptr, i32, ptr, ...) %42(ptr noundef nonnull %0, i32 noundef 6, ptr noundef nonnull @.str.4, ptr noundef %45, ptr noundef nonnull @.str.12) #6
  br label %55

47:                                               ; preds = %33
  %48 = getelementptr inbounds nuw i8, ptr %21, i64 8
  %49 = tail call i32 @exr_attr_list_add(ptr noundef nonnull %0, ptr noundef nonnull %48, ptr noundef nonnull @.str.12, i32 noundef 8, i32 noundef 0, ptr noundef null, ptr noundef nonnull %34) #6
  %50 = icmp eq i32 %49, 0
  br i1 %50, label %..thread_crit_edge, label %53

..thread_crit_edge:                               ; preds = %47
  %.pre = load ptr, ptr %34, align 8, !tbaa !44
  br label %.thread

.thread:                                          ; preds = %..thread_crit_edge, %36
  %51 = phi ptr [ %.pre, %..thread_crit_edge ], [ %35, %36 ]
  %52 = getelementptr inbounds nuw i8, ptr %51, i64 24
  store float %2, ptr %52, align 8, !tbaa !35
  br label %53

53:                                               ; preds = %.thread, %47
  %.03443 = phi i32 [ 0, %.thread ], [ %49, %47 ]
  %54 = tail call i32 @pthread_mutex_unlock(ptr noundef nonnull %5) #6
  br label %55

55:                                               ; preds = %3, %53, %39, %28, %23, %11
  %.0 = phi i32 [ %15, %11 ], [ %27, %23 ], [ %32, %28 ], [ %46, %39 ], [ %.03443, %53 ], [ 2, %3 ]
  ret i32 %.0
}